target datalayout = "e-m:e-p270:32:32-p271:32:32-p272:64:64-i64:64-i128:128-f80:128-n8:16:32:64-S128"
target triple = "x86_64-pc-linux-gnu"

@.str.85 = private unnamed_addr constant [33 x i8] c"attempt to %s a '%s' with a '%s'\00", align 1

; Function Attrs: nounwind uwtable
define internal void @trymt(ptr noundef %0, ptr noundef %1) #0 {
  %3 = alloca ptr, align 8
  %4 = alloca ptr, align 8
  store ptr %0, ptr %3, align 8, !tbaa !4
  store ptr %1, ptr %4, align 8, !tbaa !9
  %5 = load ptr, ptr %3, align 8, !tbaa !4
  call void @lua_settop(ptr noundef %5, i32 noundef 2)
  %6 = load ptr, ptr %3, align 8, !tbaa !4
  %7 = call i32 @lua_type(ptr noundef %6, i32 noundef 2)
  %8 = icmp eq i32 %7, 4
  br i1 %8, label %15, label %9

9:                                                ; preds = %2
  %10 = load ptr, ptr %3, align 8, !tbaa !4
  %11 = load ptr, ptr %4, align 8, !tbaa !9
  %12 = call i32 @luaL_getmetafield(ptr noundef %10, i32 noundef 2, ptr noundef %11)
  %13 = icmp ne i32 %12, 0
  %14 = xor i1 %13, true
  br label %15

15:                                               ; preds = %9, %2
  %16 = phi i1 [ true, %2 ], [ %14, %9 ]
  %17 = zext i1 %16 to i32
  %18 = icmp ne i32 %17, 0
  %19 = zext i1 %18 to i32
  %20 = sext i32 %19 to i64
  %21 = call i64 @llvm.expect.i64(i64 %20, i64 0)
  %22 = icmp ne i64 %21, 0
  br i1 %22, label %23, label %36

23:                                               ; preds = %15
  %24 = load ptr, ptr %3, align 8, !tbaa !4
  %25 = load ptr, ptr %4, align 8, !tbaa !9
  %26 = getelementptr inbounds i8, ptr %25, i64 2
  %27 = load ptr, ptr %3, align 8, !tbaa !4
  %28 = load ptr, ptr %3, align 8, !tbaa !4
  %29 = call i32 @lua_type(ptr noundef %28, i32 noundef -2)
  %30 = call ptr @lua_typename(ptr noundef %27, i32 noundef %29)
  %31 = load ptr, ptr %3, align 8, !tbaa !4
  %32 = load ptr, ptr %3, align 8, !tbaa !4
  %33 = call i32 @lua_type(ptr noundef %32, i32 noundef -1)
  %34 = call ptr @lua_typename(ptr noundef %31, i32 noundef %33)
  %35 = call i32 (ptr, ptr, ...) @luaL_error(ptr noundef %24, ptr noundef @.str.85, ptr noundef %26, ptr noundef %30, ptr noundef %34)
  br label %36

36:                                               ; preds = %23, %15
  %37 = load ptr, ptr %3, align 8, !tbaa !4
  call void @lua_rotate(ptr noundef %37, i32 noundef -3, i32 noundef 1)
  %38 = load ptr, ptr %3, align 8, !tbaa !4
  call void @lua_callk(ptr noundef %38, i32 noundef 2, i32 noundef 1, i64 noundef 0, ptr noundef null)
  ret void
}

; Function Attrs: nounwind uwtable
define internal i32 @tonum(ptr noundef %0, i32 noundef %1) #0 {
  %3 = alloca i32, align 4
  %4 = alloca ptr, align 8
  %5 = alloca i32, align 4
  %6 = alloca i64, align 8
  %7 = alloca ptr, align 8
  store ptr %0, ptr %4, align 8, !tbaa !4
  store i32 %1, ptr %5, align 4, !tbaa !15
  %8 = load ptr, ptr %4, align 8, !tbaa !4
  %9 = load i32, ptr %5, align 4, !tbaa !15
  %10 = call i32 @lua_type(ptr noundef %8, i32 noundef %9)
  %11 = icmp eq i32 %10, 3
  br i1 %11, label %12, label %15

12:                                               ; preds = %2
  %13 = load ptr, ptr %4, align 8, !tbaa !4
  %14 = load i32, ptr %5, align 4, !tbaa !15
  call void @lua_pushvalue(ptr noundef %13, i32 noundef %14)
  store i32 1, ptr %3, align 4
  br label %31

15:                                               ; preds = %2
  call void @llvm.lifetime.start.p0(i64 8, ptr %6) #11
  call void @llvm.lifetime.start.p0(i64 8, ptr %7) #11
  %16 = load ptr, ptr %4, align 8, !tbaa !4
  %17 = load i32, ptr %5, align 4, !tbaa !15
  %18 = call ptr @lua_tolstring(ptr noundef %16, i32 noundef %17, ptr noundef %6)
  store ptr %18, ptr %7, align 8, !tbaa !9
  %19 = load ptr, ptr %7, align 8, !tbaa !9
  %20 = icmp ne ptr %19, null
  br i1 %20, label %21, label %28

21:                                               ; preds = %15
  %22 = load ptr, ptr %4, align 8, !tbaa !4
  %23 = load ptr, ptr %7, align 8, !tbaa !9
  %24 = call i64 @lua_stringtonumber(ptr noundef %22, ptr noundef %23)
  %25 = load i64, ptr %6, align 8, !tbaa !13
  %26 = add i64 %25, 1
  %27 = icmp eq i64 %24, %26
  br label %28

28:                                               ; preds = %21, %15
  %29 = phi i1 [ false, %15 ], [ %27, %21 ]
  %30 = zext i1 %29 to i32
  store i32 %30, ptr %3, align 4
  call void @llvm.lifetime.end.p0(i64 8, ptr %7) #11
  call void @llvm.lifetime.end.p0(i64 8, ptr %6) #11
  br label %31

31:                                               ; preds = %28, %12
  %32 = load i32, ptr %3, align 4
  ret i32 %32
}

; Function Attrs: nounwind uwtable
define internal i32 @arith(ptr noundef %0, i32 noundef %1, ptr noundef %2) #0 {
  %4 = alloca ptr, align 8
  %5 = alloca i32, align 4
  %6 = alloca ptr, align 8
  store ptr %0, ptr %4, align 8, !tbaa !4
  store i32 %1, ptr %5, align 4, !tbaa !15
  store ptr %2, ptr %6, align 8, !tbaa !9
  %7 = load ptr, ptr %4, align 8, !tbaa !4
  %8 = call i32 @tonum(ptr noundef %7, i32 noundef 1)
  %9 = icmp ne i32 %8, 0
  br i1 %9, label %10, label %17

10:                                               ; preds = %3
  %11 = load ptr, ptr %4, align 8, !tbaa !4
  %12 = call i32 @tonum(ptr noundef %11, i32 noundef 2)
  %13 = icmp ne i32 %12, 0
  br i1 %13, label %14, label %17

14:                                               ; preds = %10
  %15 = load ptr, ptr %4, align 8, !tbaa !4
  %16 = load i32, ptr %5, align 4, !tbaa !15
  call void @lua_arith(ptr noundef %15, i32 noundef %16)
  br label %20

17:                                               ; preds = %10, %3
  %18 = load ptr, ptr %4, align 8, !tbaa !4
  %19 = load ptr, ptr %6, align 8, !tbaa !9
  call void @trymt(ptr noundef %18, ptr noundef %19)
  br label %20

20:                                               ; preds = %17, %14
  ret i32 1
}