; Function Attrs: nounwind uwtable
define internal fastcc void @arith(ptr noundef %0, i32 noundef range(i32 0, 13) %1, ptr noundef %2) unnamed_addr #0 {
  %4 = alloca i64, align 8
  %5 = alloca i64, align 8
  %6 = tail call i32 @lua_type(ptr noundef %0, i32 noundef 1) #12
  %7 = icmp eq i32 %6, 3
  br i1 %7, label %tonum.exit.thread, label %8

tonum.exit.thread:                                ; preds = %3
  tail call void @lua_pushvalue(ptr noundef %0, i32 noundef 1) #12
  br label %13

8:                                                ; preds = %3
  call void @llvm.lifetime.start.p0(i64 8, ptr nonnull %5) #12
  %9 = call ptr @lua_tolstring(ptr noundef %0, i32 noundef 1, ptr noundef nonnull %5) #12
  %.not.i = icmp eq ptr %9, null
  br i1 %.not.i, label %tonum.exit.thread12, label %tonum.exit

tonum.exit.thread12:                              ; preds = %8
  call void @llvm.lifetime.end.p0(i64 8, ptr nonnull %5) #12
  br label %22

tonum.exit:                                       ; preds = %8
  %10 = call i64 @lua_stringtonumber(ptr noundef %0, ptr noundef nonnull %9) #12
  %11 = load i64, ptr %5, align 8, !tbaa !4
  %12 = add i64 %11, 1
  %.not = icmp eq i64 %10, %12
  call void @llvm.lifetime.end.p0(i64 8, ptr nonnull %5) #12
  br i1 %.not, label %13, label %22

13:                                               ; preds = %tonum.exit.thread, %tonum.exit
  %14 = call i32 @lua_type(ptr noundef %0, i32 noundef 2) #12
  %15 = icmp eq i32 %14, 3
  br i1 %15, label %tonum.exit8.thread, label %16

tonum.exit8.thread:                               ; preds = %13
  call void @lua_pushvalue(ptr noundef %0, i32 noundef 2) #12
  br label %21

16:                                               ; preds = %13
  call void @llvm.lifetime.start.p0(i64 8, ptr nonnull %4) #12
  %17 = call ptr @lua_tolstring(ptr noundef %0, i32 noundef 2, ptr noundef nonnull %4) #12
  %.not.i6 = icmp eq ptr %17, null
  br i1 %.not.i6, label %tonum.exit8.thread16, label %tonum.exit8

tonum.exit8.thread16:                             ; preds = %16
  call void @llvm.lifetime.end.p0(i64 8, ptr nonnull %4) #12
  br label %22

tonum.exit8:                                      ; preds = %16
  %18 = call i64 @lua_stringtonumber(ptr noundef %0, ptr noundef nonnull %17) #12
  %19 = load i64, ptr %4, align 8, !tbaa !4
  %20 = add i64 %19, 1
  %.not18 = icmp eq i64 %18, %20
  call void @llvm.lifetime.end.p0(i64 8, ptr nonnull %4) #12
  br i1 %.not18, label %21, label %22

21:                                               ; preds = %tonum.exit8.thread, %tonum.exit8
  call void @lua_arith(ptr noundef %0, i32 noundef %1) #12
  br label %33

22:                                               ; preds = %tonum.exit8.thread16, %tonum.exit.thread12, %tonum.exit8, %tonum.exit
  call void @lua_settop(ptr noundef %0, i32 noundef 2) #12
  %23 = call i32 @lua_type(ptr noundef %0, i32 noundef 2) #12
  %24 = icmp eq i32 %23, 4
  br i1 %24, label %.critedge.i, label %25

25:                                               ; preds = %22
  %26 = call i32 @luaL_getmetafield(ptr noundef %0, i32 noundef 2, ptr noundef %2) #12
  %.not.i9 = icmp eq i32 %26, 0
  br i1 %.not.i9, label %.critedge.i, label %trymt.exit, !prof !8

.critedge.i:                                      ; preds = %25, %22
  %27 = getelementptr inbounds nuw i8, ptr %2, i64 2
  %28 = call i32 @lua_type(ptr noundef %0, i32 noundef -2) #12
  %29 = call ptr @lua_typename(ptr noundef %0, i32 noundef %28) #12
  %30 = call i32 @lua_type(ptr noundef %0, i32 noundef -1) #12
  %31 = call ptr @lua_typename(ptr noundef %0, i32 noundef %30) #12
  %32 = call i32 (ptr, ptr, ...) @luaL_error(ptr noundef %0, ptr noundef nonnull @.str.85, ptr noundef nonnull %27, ptr noundef %29, ptr noundef %31) #12
  br label %trymt.exit

trymt.exit:                                       ; preds = %25, %.critedge.i
  call void @lua_rotate(ptr noundef %0, i32 noundef -3, i32 noundef 1) #12
  call void @lua_callk(ptr noundef %0, i32 noundef 2, i32 noundef 1, i64 noundef 0, ptr noundef null) #12
  br label %33

33:                                               ; preds = %trymt.exit, %21
  ret void
}